target datalayout = "e-m:e-p270:32:32-p271:32:32-p272:64:64-i64:64-i128:128-f80:128-n8:16:32:64-S128"
target triple = "x86_64-pc-linux-gnu"

%"class.duckdb_re2::RE2::Options" = type <{ i64, i32, i8, i8, i8, i8, i8, i8, i8, i8, i8, i8, i8, i8 }>

; Function Attrs: mustprogress nounwind uwtable
define hidden void @_ZN10duckdb_re23RE27OptionsC2ENS0_13CannedOptionsE(ptr noundef nonnull align 8 dereferenceable(23) %0, i32 noundef %1) unnamed_addr #0 align 2 {
  %3 = alloca ptr, align 8
  %4 = alloca i32, align 4
  store ptr %0, ptr %3, align 8, !tbaa !7
  store i32 %1, ptr %4, align 4, !tbaa !10
  %5 = load ptr, ptr %3, align 8
  %6 = getelementptr inbounds nuw %"class.duckdb_re2::RE2::Options", ptr %5, i32 0, i32 0
  store i64 8388608, ptr %6, align 8, !tbaa !12
  %7 = getelementptr inbounds nuw %"class.duckdb_re2::RE2::Options", ptr %5, i32 0, i32 1
  %8 = load i32, ptr %4, align 4, !tbaa !10
  %9 = icmp eq i32 %8, 1
  %10 = select i1 %9, i32 2, i32 1
  store i32 %10, ptr %7, align 8, !tbaa !17
  %11 = getelementptr inbounds nuw %"class.duckdb_re2::RE2::Options", ptr %5, i32 0, i32 2
  %12 = load i32, ptr %4, align 4, !tbaa !10
  %13 = icmp eq i32 %12, 2
  %14 = zext i1 %13 to i8
  store i8 %14, ptr %11, align 4, !tbaa !18
  %15 = getelementptr inbounds nuw %"class.duckdb_re2::RE2::Options", ptr %5, i32 0, i32 3
  %16 = load i32, ptr %4, align 4, !tbaa !10
  %17 = icmp eq i32 %16, 2
  %18 = zext i1 %17 to i8
  store i8 %18, ptr %15, align 1, !tbaa !19
  %19 = getelementptr inbounds nuw %"class.duckdb_re2::RE2::Options", ptr %5, i32 0, i32 4
  %20 = load i32, ptr %4, align 4, !tbaa !10
  %21 = icmp ne i32 %20, 3
  %22 = zext i1 %21 to i8
  store i8 %22, ptr %19, align 2, !tbaa !20
  %23 = getelementptr inbounds nuw %"class.duckdb_re2::RE2::Options", ptr %5, i32 0, i32 5
  store i8 0, ptr %23, align 1, !tbaa !21
  %24 = getelementptr inbounds nuw %"class.duckdb_re2::RE2::Options", ptr %5, i32 0, i32 6
  store i8 0, ptr %24, align 8, !tbaa !22
  %25 = getelementptr inbounds nuw %"class.duckdb_re2::RE2::Options", ptr %5, i32 0, i32 7
  store i8 0, ptr %25, align 1, !tbaa !23
  %26 = getelementptr inbounds nuw %"class.duckdb_re2::RE2::Options", ptr %5, i32 0, i32 8
  store i8 0, ptr %26, align 2, !tbaa !24
  %27 = getelementptr inbounds nuw %"class.duckdb_re2::RE2::Options", ptr %5, i32 0, i32 9
  store i8 1, ptr %27, align 1, !tbaa !25
  %28 = getelementptr inbounds nuw %"class.duckdb_re2::RE2::Options", ptr %5, i32 0, i32 10
  store i8 0, ptr %28, align 4, !tbaa !26
  %29 = getelementptr inbounds nuw %"class.duckdb_re2::RE2::Options", ptr %5, i32 0, i32 11
  store i8 0, ptr %29, align 1, !tbaa !27
  %30 = getelementptr inbounds nuw %"class.duckdb_re2::RE2::Options", ptr %5, i32 0, i32 12
  store i8 0, ptr %30, align 2, !tbaa !28
  ret void
}