; Function Attrs: mustprogress nofree norecurse nosync nounwind willreturn memory(argmem: write) uwtable
define hidden void @_ZN10duckdb_re23RE27OptionsC2ENS0_13CannedOptionsE(ptr noundef nonnull writeonly align 8 captures(none) dereferenceable(23) initializes((0, 23)) %0, i32 noundef %1) unnamed_addr #1 align 2 {
  store i64 8388608, ptr %0, align 8, !tbaa !7
  %3 = getelementptr inbounds nuw i8, ptr %0, i64 8
  %4 = icmp eq i32 %1, 1
  %5 = select i1 %4, i32 2, i32 1
  store i32 %5, ptr %3, align 8, !tbaa !12
  %6 = getelementptr inbounds nuw i8, ptr %0, i64 12
  %7 = icmp eq i32 %1, 2
  %8 = zext i1 %7 to i8
  store i8 %8, ptr %6, align 4, !tbaa !13
  %9 = getelementptr inbounds nuw i8, ptr %0, i64 13
  store i8 %8, ptr %9, align 1, !tbaa !14
  %10 = getelementptr inbounds nuw i8, ptr %0, i64 14
  %11 = icmp ne i32 %1, 3
  %12 = zext i1 %11 to i8
  store i8 %12, ptr %10, align 2, !tbaa !15
  %13 = getelementptr inbounds nuw i8, ptr %0, i64 15
  %14 = getelementptr inbounds nuw i8, ptr %0, i64 19
  store i32 0, ptr %13, align 1
  store i8 1, ptr %14, align 1, !tbaa !16
  %15 = getelementptr inbounds nuw i8, ptr %0, i64 20
  store i8 0, ptr %15, align 4, !tbaa !17
  %16 = getelementptr inbounds nuw i8, ptr %0, i64 21
  store i8 0, ptr %16, align 1, !tbaa !18
  %17 = getelementptr inbounds nuw i8, ptr %0, i64 22
  store i8 0, ptr %17, align 2, !tbaa !19
  ret void
}